; Function Attrs: mustprogress uwtable
define hidden void @_ZN13macro_manager10push_scopeEv(ptr noundef nonnull align 8 dereferenceable(568) %0) local_unnamed_addr #3 align 2 {
  %2 = getelementptr inbounds nuw i8, ptr %0, i64 528
  %3 = load ptr, ptr %2, align 8, !tbaa !49
  %4 = icmp eq ptr %3, null
  br i1 %4, label %11, label %5

5:                                                ; preds = %1
  %6 = getelementptr inbounds i8, ptr %3, i64 -4
  %7 = load i32, ptr %6, align 4, !tbaa !83
  %8 = getelementptr inbounds i8, ptr %3, i64 -8
  %9 = load i32, ptr %8, align 4, !tbaa !83
  %10 = icmp eq i32 %7, %9
  br i1 %10, label %11, label %_ZN6vectorIN13macro_manager5scopeELb0EjE4backEv.exit

11:                                               ; preds = %5, %1
  tail call void @_ZN6vectorIN13macro_manager5scopeELb0EjE13expand_vectorEv(ptr noundef nonnull align 8 dereferenceable(8) %2)
  %.pre.i = load ptr, ptr %2, align 8, !tbaa !49
  %.phi.trans.insert.i = getelementptr inbounds i8, ptr %.pre.i, i64 -4
  %.pre2.i = load i32, ptr %.phi.trans.insert.i, align 4, !tbaa !83
  br label %_ZN6vectorIN13macro_manager5scopeELb0EjE4backEv.exit

_ZN6vectorIN13macro_manager5scopeELb0EjE4backEv.exit: ; preds = %5, %11
  %12 = phi i32 [ %.pre2.i, %11 ], [ %7, %5 ]
  %13 = phi ptr [ %.pre.i, %11 ], [ %3, %5 ]
  %14 = zext i32 %12 to i64
  %15 = getelementptr inbounds nuw %"struct.macro_manager::scope", ptr %13, i64 %14
  store i64 0, ptr %15, align 4
  %16 = load ptr, ptr %2, align 8, !tbaa !49
  %17 = getelementptr inbounds i8, ptr %16, i64 -4
  %18 = load i32, ptr %17, align 4, !tbaa !83
  %19 = add i32 %18, 1
  store i32 %19, ptr %17, align 4, !tbaa !83
  %20 = zext i32 %18 to i64
  %21 = getelementptr inbounds nuw %"struct.macro_manager::scope", ptr %16, i64 %20
  %22 = getelementptr inbounds nuw i8, ptr %0, i64 408
  %23 = load ptr, ptr %22, align 8, !tbaa !27
  %24 = icmp eq ptr %23, null
  br i1 %24, label %_ZNK15ref_vector_coreI9func_decl19ref_manager_wrapperIS0_11ast_managerEE4sizeEv.exit, label %25

25:                                               ; preds = %_ZN6vectorIN13macro_manager5scopeELb0EjE4backEv.exit
  %26 = getelementptr inbounds i8, ptr %23, i64 -4
  %27 = load i32, ptr %26, align 4, !tbaa !83
  br label %_ZNK15ref_vector_coreI9func_decl19ref_manager_wrapperIS0_11ast_managerEE4sizeEv.exit

_ZNK15ref_vector_coreI9func_decl19ref_manager_wrapperIS0_11ast_managerEE4sizeEv.exit: ; preds = %_ZN6vectorIN13macro_manager5scopeELb0EjE4backEv.exit, %25
  %.0.i.i3 = phi i32 [ %27, %25 ], [ 0, %_ZN6vectorIN13macro_manager5scopeELb0EjE4backEv.exit ]
  store i32 %.0.i.i3, ptr %21, align 4, !tbaa !110
  %28 = getelementptr inbounds nuw i8, ptr %0, i64 496
  %29 = load ptr, ptr %28, align 8, !tbaa !27
  %30 = icmp eq ptr %29, null
  br i1 %30, label %_ZNK15ref_vector_coreI9func_decl19ref_manager_wrapperIS0_11ast_managerEE4sizeEv.exit5, label %31

31:                                               ; preds = %_ZNK15ref_vector_coreI9func_decl19ref_manager_wrapperIS0_11ast_managerEE4sizeEv.exit
  %32 = getelementptr inbounds i8, ptr %29, i64 -4
  %33 = load i32, ptr %32, align 4, !tbaa !83
  br label %_ZNK15ref_vector_coreI9func_decl19ref_manager_wrapperIS0_11ast_managerEE4sizeEv.exit5

_ZNK15ref_vector_coreI9func_decl19ref_manager_wrapperIS0_11ast_managerEE4sizeEv.exit5: ; preds = %_ZNK15ref_vector_coreI9func_decl19ref_manager_wrapperIS0_11ast_managerEE4sizeEv.exit, %31
  %.0.i.i4 = phi i32 [ %33, %31 ], [ 0, %_ZNK15ref_vector_coreI9func_decl19ref_manager_wrapperIS0_11ast_managerEE4sizeEv.exit ]
  %34 = getelementptr inbounds nuw i8, ptr %21, i64 4
  store i32 %.0.i.i4, ptr %34, align 4, !tbaa !112
  ret void
}